target datalayout = "e-m:e-p270:32:32-p271:32:32-p272:64:64-i64:64-i128:128-f80:128-n8:16:32:64-S128"
target triple = "x86_64-pc-linux-gnu"

%"class.icu_77::UObject" = type { ptr }
%"class.icu_77::UnicodeString" = type { %"class.icu_77::Replaceable", %"union.icu_77::UnicodeString::StackBufferOrFields" }
%"class.icu_77::Replaceable" = type { %"class.icu_77::UObject" }
%"union.icu_77::UnicodeString::StackBufferOrFields" = type { %struct.anon.0, [32 x i8] }
%struct.anon.0 = type { i16, i32, i32, ptr }
%"class.icu_77::Char16Ptr" = type { ptr }

; Function Attrs: inlinehint mustprogress nounwind uwtable
define linkonce_odr void @_ZN6icu_779Char16PtrD2Ev(ptr noundef nonnull align 8 dereferenceable(8) %0) unnamed_addr #2 comdat align 2 {
  %2 = alloca ptr, align 8
  store ptr %0, ptr %2, align 8, !tbaa !111
  %3 = load ptr, ptr %2, align 8
  %4 = getelementptr inbounds nuw %"class.icu_77::Char16Ptr", ptr %3, i32 0, i32 0
  %5 = load ptr, ptr %4, align 8, !tbaa !113
  call void asm sideeffect "", "rm,~{memory},~{dirflag},~{fpsr},~{flags}"(ptr %5) #13, !srcloc !115
  ret void
}

; Function Attrs: inlinehint mustprogress nounwind uwtable
define linkonce_odr void @_ZN6icu_779Char16PtrC2EPDs(ptr noundef nonnull align 8 dereferenceable(8) %0, ptr noundef %1) unnamed_addr #2 comdat align 2 {
  %3 = alloca ptr, align 8
  %4 = alloca ptr, align 8
  store ptr %0, ptr %3, align 8, !tbaa !111
  store ptr %1, ptr %4, align 8, !tbaa !33
  %5 = load ptr, ptr %3, align 8
  %6 = getelementptr inbounds nuw %"class.icu_77::Char16Ptr", ptr %5, i32 0, i32 0
  %7 = load ptr, ptr %4, align 8, !tbaa !33
  store ptr %7, ptr %6, align 8, !tbaa !113
  ret void
}

; Function Attrs: inlinehint mustprogress nounwind uwtable
define linkonce_odr noundef signext i8 @_ZNK6icu_7713UnicodeString7isBogusEv(ptr noundef nonnull align 8 dereferenceable(64) %0) #2 comdat align 2 {
  %2 = alloca ptr, align 8
  store ptr %0, ptr %2, align 8, !tbaa !31
  %3 = load ptr, ptr %2, align 8
  %4 = getelementptr inbounds nuw %"class.icu_77::UnicodeString", ptr %3, i32 0, i32 1
  %5 = getelementptr inbounds nuw %struct.anon.0, ptr %4, i32 0, i32 0
  %6 = load i16, ptr %5, align 8, !tbaa !58
  %7 = sext i16 %6 to i32
  %8 = and i32 %7, 1
  %9 = trunc i32 %8 to i8
  ret i8 %9
}

; Function Attrs: inlinehint mustprogress nounwind uwtable
define internal noundef signext i8 @_ZL9U_FAILURE10UErrorCode(i32 noundef %0) #2 {
  %2 = alloca i32, align 4
  store i32 %0, ptr %2, align 4, !tbaa !15
  %3 = load i32, ptr %2, align 4, !tbaa !15
  %4 = icmp sgt i32 %3, 0
  %5 = zext i1 %4 to i8
  ret i8 %5
}

; Function Attrs: mustprogress uwtable
define i32 @uldn_localeDisplayName_77(ptr noundef %0, ptr noundef %1, ptr noundef %2, i32 noundef %3, ptr noundef %4) #1 personality ptr @__gxx_personality_v0 {
  %6 = alloca i32, align 4
  %7 = alloca ptr, align 8
  %8 = alloca ptr, align 8
  %9 = alloca ptr, align 8
  %10 = alloca i32, align 4
  %11 = alloca ptr, align 8
  %12 = alloca %"class.icu_77::UnicodeString", align 8
  %13 = alloca ptr, align 8
  %14 = alloca i32, align 4
  %15 = alloca i32, align 4
  %16 = alloca %"class.icu_77::Char16Ptr", align 8
  store ptr %0, ptr %7, align 8, !tbaa !109
  store ptr %1, ptr %8, align 8, !tbaa !17
  store ptr %2, ptr %9, align 8, !tbaa !33
  store i32 %3, ptr %10, align 4, !tbaa !14
  store ptr %4, ptr %11, align 8, !tbaa !22
  %17 = load ptr, ptr %11, align 8, !tbaa !22
  %18 = load i32, ptr %17, align 4, !tbaa !15
  %19 = call noundef signext i8 @_ZL9U_FAILURE10UErrorCode(i32 noundef %18)
  %20 = icmp ne i8 %19, 0
  br i1 %20, label %21, label %22

21:                                               ; preds = %5
  store i32 0, ptr %6, align 4
  br label %71

22:                                               ; preds = %5
  %23 = load ptr, ptr %7, align 8, !tbaa !109
  %24 = icmp eq ptr %23, null
  br i1 %24, label %37, label %25

25:                                               ; preds = %22
  %26 = load ptr, ptr %8, align 8, !tbaa !17
  %27 = icmp eq ptr %26, null
  br i1 %27, label %37, label %28

28:                                               ; preds = %25
  %29 = load ptr, ptr %9, align 8, !tbaa !33
  %30 = icmp eq ptr %29, null
  br i1 %30, label %31, label %34

31:                                               ; preds = %28
  %32 = load i32, ptr %10, align 4, !tbaa !14
  %33 = icmp sgt i32 %32, 0
  br i1 %33, label %37, label %34

34:                                               ; preds = %31, %28
  %35 = load i32, ptr %10, align 4, !tbaa !14
  %36 = icmp slt i32 %35, 0
  br i1 %36, label %37, label %39

37:                                               ; preds = %34, %31, %25, %22
  %38 = load ptr, ptr %11, align 8, !tbaa !22
  store i32 1, ptr %38, align 4, !tbaa !15
  store i32 0, ptr %6, align 4
  br label %71

39:                                               ; preds = %34
  call void @llvm.lifetime.start.p0(i64 64, ptr %12) #13
  %40 = load ptr, ptr %9, align 8, !tbaa !33
  %41 = load i32, ptr %10, align 4, !tbaa !14
  call void @_ZN6icu_7713UnicodeStringC1EPDsii(ptr noundef nonnull align 8 dereferenceable(64) %12, ptr noundef %40, i32 noundef 0, i32 noundef %41)
  %42 = load ptr, ptr %7, align 8, !tbaa !109
  %43 = load ptr, ptr %8, align 8, !tbaa !17
  %44 = load ptr, ptr %42, align 8, !tbaa !42
  %45 = getelementptr inbounds ptr, ptr %44, i64 7
  %46 = load ptr, ptr %45, align 8
  %47 = invoke noundef nonnull align 8 dereferenceable(64) ptr %46(ptr noundef nonnull align 8 dereferenceable(8) %42, ptr noundef %43, ptr noundef nonnull align 8 dereferenceable(64) %12)
          to label %48 unwind label %54

48:                                               ; preds = %39
  %49 = invoke noundef signext i8 @_ZNK6icu_7713UnicodeString7isBogusEv(ptr noundef nonnull align 8 dereferenceable(64) %12)
          to label %50 unwind label %54

50:                                               ; preds = %48
  %51 = icmp ne i8 %49, 0
  br i1 %51, label %52, label %58

52:                                               ; preds = %50
  %53 = load ptr, ptr %11, align 8, !tbaa !22
  store i32 1, ptr %53, align 4, !tbaa !15
  store i32 0, ptr %6, align 4
  store i32 1, ptr %15, align 4
  br label %69

54:                                               ; preds = %58, %48, %39
  %55 = landingpad { ptr, i32 }
          cleanup
  %56 = extractvalue { ptr, i32 } %55, 0
  store ptr %56, ptr %13, align 8
  %57 = extractvalue { ptr, i32 } %55, 1
  store i32 %57, ptr %14, align 4
  br label %70

58:                                               ; preds = %50
  %59 = load ptr, ptr %9, align 8, !tbaa !33
  invoke void @_ZN6icu_779Char16PtrC2EPDs(ptr noundef nonnull align 8 dereferenceable(8) %16, ptr noundef %59)
          to label %60 unwind label %54

60:                                               ; preds = %58
  %61 = load i32, ptr %10, align 4, !tbaa !14
  %62 = load ptr, ptr %11, align 8, !tbaa !22
  %63 = invoke noundef i32 @_ZNK6icu_7713UnicodeString7extractENS_9Char16PtrEiR10UErrorCode(ptr noundef nonnull align 8 dereferenceable(64) %12, ptr noundef %16, i32 noundef %61, ptr noundef nonnull align 4 dereferenceable(4) %62)
          to label %64 unwind label %65

64:                                               ; preds = %60
  store i32 %63, ptr %6, align 4
  call void @_ZN6icu_779Char16PtrD2Ev(ptr noundef nonnull align 8 dereferenceable(8) %16) #13
  store i32 1, ptr %15, align 4
  br label %69

65:                                               ; preds = %60
  %66 = landingpad { ptr, i32 }
          cleanup
  %67 = extractvalue { ptr, i32 } %66, 0
  store ptr %67, ptr %13, align 8
  %68 = extractvalue { ptr, i32 } %66, 1
  store i32 %68, ptr %14, align 4
  call void @_ZN6icu_779Char16PtrD2Ev(ptr noundef nonnull align 8 dereferenceable(8) %16) #13
  br label %70

69:                                               ; preds = %64, %52
  call void @_ZN6icu_7713UnicodeStringD1Ev(ptr noundef nonnull align 8 dereferenceable(64) %12) #13
  call void @llvm.lifetime.end.p0(i64 64, ptr %12) #13
  br label %71

70:                                               ; preds = %65, %54
  call void @_ZN6icu_7713UnicodeStringD1Ev(ptr noundef nonnull align 8 dereferenceable(64) %12) #13
  call void @llvm.lifetime.end.p0(i64 64, ptr %12) #13
  br label %73

71:                                               ; preds = %69, %37, %21
  %72 = load i32, ptr %6, align 4
  ret i32 %72

73:                                               ; preds = %70
  %74 = load ptr, ptr %13, align 8
  %75 = load i32, ptr %14, align 4
  %76 = insertvalue { ptr, i32 } poison, ptr %74, 0
  %77 = insertvalue { ptr, i32 } %76, i32 %75, 1
  resume { ptr, i32 } %77
}